target datalayout = "e-m:e-p270:32:32-p271:32:32-p272:64:64-i64:64-i128:128-f80:128-n8:16:32:64-S128"
target triple = "x86_64-pc-linux-gnu"

%struct.Vec_Str_t_ = type { i32, i32, ptr }

@.str.39 = private unnamed_addr constant [45 x i8] c"Finished dumping statistics into file \22%s\22.\0A\00", align 1
@.str.52 = private unnamed_addr constant [97 x i8] c"Summary: Total = %6d.  Errors = %6d.  Correct = %6d. (%6.2f %%)   Naive guess = %6d. (%6.2f %%)\0A\00", align 1

; Function Attrs: inlinehint nounwind uwtable
define internal signext i8 @Vec_StrEntry(ptr noundef %0, i32 noundef %1) #4 {
  %3 = alloca ptr, align 8
  %4 = alloca i32, align 4
  store ptr %0, ptr %3, align 8, !tbaa !8
  store i32 %1, ptr %4, align 4, !tbaa !10
  %5 = load ptr, ptr %3, align 8, !tbaa !8
  %6 = getelementptr inbounds nuw %struct.Vec_Str_t_, ptr %5, i32 0, i32 2
  %7 = load ptr, ptr %6, align 8, !tbaa !40
  %8 = load i32, ptr %4, align 4, !tbaa !10
  %9 = sext i32 %8 to i64
  %10 = getelementptr inbounds i8, ptr %7, i64 %9
  %11 = load i8, ptr %10, align 1, !tbaa !42
  ret i8 %11
}

; Function Attrs: nounwind uwtable
define void @Gia_ManCompareCifar10Values(ptr noundef %0, ptr noundef %1, ptr noundef %2, ptr noundef %3, i32 noundef %4) #0 {
  %6 = alloca ptr, align 8
  %7 = alloca ptr, align 8
  %8 = alloca ptr, align 8
  %9 = alloca ptr, align 8
  %10 = alloca i32, align 4
  %11 = alloca i32, align 4
  %12 = alloca i32, align 4
  %13 = alloca i32, align 4
  %14 = alloca i8, align 1
  %15 = alloca i8, align 1
  %16 = alloca i32, align 4
  store ptr %0, ptr %6, align 8, !tbaa !12
  store ptr %1, ptr %7, align 8, !tbaa !8
  store ptr %2, ptr %8, align 8, !tbaa !8
  store ptr %3, ptr %9, align 8, !tbaa !48
  store i32 %4, ptr %10, align 4, !tbaa !10
  call void @llvm.lifetime.start.p0(i64 4, ptr %11) #15
  call void @llvm.lifetime.start.p0(i64 4, ptr %12) #15
  %17 = load i32, ptr %10, align 4, !tbaa !10
  %18 = add nsw i32 %17, 9
  %19 = sdiv i32 %18, 10
  store i32 %19, ptr %12, align 4, !tbaa !10
  call void @llvm.lifetime.start.p0(i64 4, ptr %13) #15
  store i32 0, ptr %13, align 4, !tbaa !10
  store i32 0, ptr %11, align 4, !tbaa !10
  br label %20

20:                                               ; preds = %40, %5
  %21 = load i32, ptr %11, align 4, !tbaa !10
  %22 = load i32, ptr %10, align 4, !tbaa !10
  %23 = icmp slt i32 %21, %22
  br i1 %23, label %24, label %43

24:                                               ; preds = %20
  call void @llvm.lifetime.start.p0(i64 1, ptr %14) #15
  %25 = load ptr, ptr %7, align 8, !tbaa !8
  %26 = load i32, ptr %11, align 4, !tbaa !10
  %27 = call signext i8 @Vec_StrEntry(ptr noundef %25, i32 noundef %26)
  store i8 %27, ptr %14, align 1, !tbaa !42
  call void @llvm.lifetime.start.p0(i64 1, ptr %15) #15
  %28 = load ptr, ptr %8, align 8, !tbaa !8
  %29 = load i32, ptr %11, align 4, !tbaa !10
  %30 = call signext i8 @Vec_StrEntry(ptr noundef %28, i32 noundef %29)
  store i8 %30, ptr %15, align 1, !tbaa !42
  %31 = load i8, ptr %14, align 1, !tbaa !42
  %32 = sext i8 %31 to i32
  %33 = load i8, ptr %15, align 1, !tbaa !42
  %34 = sext i8 %33 to i32
  %35 = icmp eq i32 %32, %34
  br i1 %35, label %36, label %39

36:                                               ; preds = %24
  %37 = load i32, ptr %13, align 4, !tbaa !10
  %38 = add nsw i32 %37, 1
  store i32 %38, ptr %13, align 4, !tbaa !10
  br label %39

39:                                               ; preds = %36, %24
  call void @llvm.lifetime.end.p0(i64 1, ptr %15) #15
  call void @llvm.lifetime.end.p0(i64 1, ptr %14) #15
  br label %40

40:                                               ; preds = %39
  %41 = load i32, ptr %11, align 4, !tbaa !10
  %42 = add nsw i32 %41, 1
  store i32 %42, ptr %11, align 4, !tbaa !10
  br label %20, !llvm.loop !116

43:                                               ; preds = %20
  %44 = load i32, ptr %10, align 4, !tbaa !10
  %45 = load i32, ptr %10, align 4, !tbaa !10
  %46 = load i32, ptr %13, align 4, !tbaa !10
  %47 = sub nsw i32 %45, %46
  %48 = load i32, ptr %13, align 4, !tbaa !10
  %49 = load i32, ptr %13, align 4, !tbaa !10
  %50 = sitofp i32 %49 to double
  %51 = fmul double 1.000000e+02, %50
  %52 = load i32, ptr %10, align 4, !tbaa !10
  %53 = sitofp i32 %52 to double
  %54 = fdiv double %51, %53
  %55 = load i32, ptr %12, align 4, !tbaa !10
  %56 = load i32, ptr %12, align 4, !tbaa !10
  %57 = sitofp i32 %56 to double
  %58 = fmul double 1.000000e+02, %57
  %59 = load i32, ptr %10, align 4, !tbaa !10
  %60 = sitofp i32 %59 to double
  %61 = fdiv double %58, %60
  %62 = call i32 (ptr, ...) @printf(ptr noundef @.str.52, i32 noundef %44, i32 noundef %47, i32 noundef %48, double noundef %54, i32 noundef %55, double noundef %61)
  %63 = load ptr, ptr %9, align 8, !tbaa !48
  %64 = icmp eq ptr %63, null
  br i1 %64, label %65, label %66

65:                                               ; preds = %43
  store i32 1, ptr %16, align 4
  br label %74

66:                                               ; preds = %43
  %67 = load ptr, ptr %6, align 8, !tbaa !12
  %68 = load ptr, ptr %9, align 8, !tbaa !48
  %69 = load i32, ptr %10, align 4, !tbaa !10
  %70 = load i32, ptr %13, align 4, !tbaa !10
  %71 = load i32, ptr %12, align 4, !tbaa !10
  call void @Gia_ManSimLogStats(ptr noundef %67, ptr noundef %68, i32 noundef %69, i32 noundef %70, i32 noundef %71)
  %72 = load ptr, ptr %9, align 8, !tbaa !48
  %73 = call i32 (ptr, ...) @printf(ptr noundef @.str.39, ptr noundef %72)
  store i32 0, ptr %16, align 4
  br label %74

74:                                               ; preds = %66, %65
  call void @llvm.lifetime.end.p0(i64 4, ptr %13) #15
  call void @llvm.lifetime.end.p0(i64 4, ptr %12) #15
  call void @llvm.lifetime.end.p0(i64 4, ptr %11) #15
  %75 = load i32, ptr %16, align 4
  switch i32 %75, label %77 [
    i32 0, label %76
    i32 1, label %76
  ]

76:                                               ; preds = %74, %74
  ret void

77:                                               ; preds = %74
  unreachable
}