; Function Attrs: nounwind uwtable
define void @Gia_ManCompareCifar10Values(ptr noundef %0, ptr noundef readonly captures(none) %1, ptr noundef readonly captures(none) %2, ptr noundef %3, i32 noundef %4) local_unnamed_addr #0 {
  %6 = add nsw i32 %4, 9
  %7 = sdiv i32 %6, 10
  %8 = icmp sgt i32 %4, 0
  br i1 %8, label %.lr.ph, label %._crit_edge

.lr.ph:                                           ; preds = %5
  %9 = getelementptr i8, ptr %1, i64 8
  %.val29 = load ptr, ptr %9, align 8, !tbaa !5
  %10 = getelementptr i8, ptr %2, i64 8
  %.val = load ptr, ptr %10, align 8, !tbaa !5
  %wide.trip.count = zext nneg i32 %4 to i64
  br label %11

11:                                               ; preds = %.lr.ph, %11
  %indvars.iv = phi i64 [ 0, %.lr.ph ], [ %indvars.iv.next, %11 ]
  %.02630 = phi i32 [ 0, %.lr.ph ], [ %spec.select, %11 ]
  %12 = getelementptr inbounds nuw i8, ptr %.val29, i64 %indvars.iv
  %13 = load i8, ptr %12, align 1, !tbaa !12
  %14 = getelementptr inbounds nuw i8, ptr %.val, i64 %indvars.iv
  %15 = load i8, ptr %14, align 1, !tbaa !12
  %16 = icmp eq i8 %13, %15
  %17 = zext i1 %16 to i32
  %spec.select = add nuw nsw i32 %.02630, %17
  %indvars.iv.next = add nuw nsw i64 %indvars.iv, 1
  %exitcond.not = icmp eq i64 %indvars.iv.next, %wide.trip.count
  br i1 %exitcond.not, label %._crit_edge, label %11, !llvm.loop !102

._crit_edge:                                      ; preds = %11, %5
  %.026.lcssa = phi i32 [ 0, %5 ], [ %spec.select, %11 ]
  %18 = sub nsw i32 %4, %.026.lcssa
  %19 = uitofp nneg i32 %.026.lcssa to double
  %20 = fmul double %19, 1.000000e+02
  %21 = sitofp i32 %4 to double
  %22 = fdiv double %20, %21
  %23 = sitofp i32 %7 to double
  %24 = fmul double %23, 1.000000e+02
  %25 = fdiv double %24, %21
  %26 = tail call i32 (ptr, ...) @printf(ptr noundef nonnull dereferenceable(1) @.str.52, i32 noundef %4, i32 noundef %18, i32 noundef %.026.lcssa, double noundef %22, i32 noundef %7, double noundef %25)
  %27 = icmp eq ptr %3, null
  br i1 %27, label %30, label %28

28:                                               ; preds = %._crit_edge
  tail call void @Gia_ManSimLogStats(ptr noundef %0, ptr noundef nonnull %3, i32 noundef %4, i32 noundef %.026.lcssa, i32 noundef %7)
  %29 = tail call i32 (ptr, ...) @printf(ptr noundef nonnull dereferenceable(1) @.str.39, ptr noundef nonnull %3)
  br label %30

30:                                               ; preds = %._crit_edge, %28
  ret void
}